; Function Attrs: null_pointer_is_valid sspstrong uwtable
define hidden ptr @pbl_message_descriptor_FindFieldByName(ptr noundef readonly captures(address_is_null) %0, ptr noundef %1) local_unnamed_addr #0 {
  %.not = icmp eq ptr %0, null
  br i1 %.not, label %8, label %3

3:                                                ; preds = %2
  %4 = getelementptr inbounds nuw i8, ptr %0, i64 40
  %5 = load ptr, ptr %4, align 8
  %.not7 = icmp eq ptr %5, null
  br i1 %.not7, label %8, label %6

6:                                                ; preds = %3
  %7 = tail call ptr @g_hash_table_lookup(ptr noundef nonnull %5, ptr noundef %1)
  br label %8

8:                                                ; preds = %2, %3, %6
  %.0 = phi ptr [ %7, %6 ], [ null, %3 ], [ null, %2 ]
  ret ptr %.0
}